target datalayout = "e-m:e-p270:32:32-p271:32:32-p272:64:64-i64:64-i128:128-f80:128-n8:16:32:64-S128"
target triple = "x86_64-pc-linux-gnu"

%struct.GVertex = type { %struct._GtsVertex, i32 }
%struct._GtsVertex = type { %struct._GtsPoint, ptr }
%struct._GtsPoint = type { %struct._GtsObject, double, double, double }
%struct._GtsObject = type { ptr, ptr, i32 }
%struct._GtsTriangle = type { %struct._GtsObject, ptr, ptr, ptr }
%struct.fstate = type { ptr, ptr, ptr }
%struct.GFace = type { %struct._GtsFace, i32 }
%struct._GtsFace = type { %struct._GtsTriangle, ptr }

; Function Attrs: nounwind uwtable
define internal i32 @addTri(ptr noundef %0, ptr noundef %1) #0 {
  %3 = alloca ptr, align 8
  %4 = alloca ptr, align 8
  %5 = alloca ptr, align 8
  %6 = alloca ptr, align 8
  %7 = alloca i32, align 4
  %8 = alloca ptr, align 8
  %9 = alloca ptr, align 8
  %10 = alloca ptr, align 8
  %11 = alloca ptr, align 8
  store ptr %0, ptr %3, align 8, !tbaa !25
  store ptr %1, ptr %4, align 8, !tbaa !25
  call void @llvm.lifetime.start.p0(i64 8, ptr %5) #12
  %12 = load ptr, ptr %3, align 8, !tbaa !25
  store ptr %12, ptr %5, align 8, !tbaa !25
  call void @llvm.lifetime.start.p0(i64 8, ptr %6) #12
  %13 = load ptr, ptr %4, align 8, !tbaa !25
  store ptr %13, ptr %6, align 8, !tbaa !25
  call void @llvm.lifetime.start.p0(i64 4, ptr %7) #12
  %14 = load ptr, ptr %5, align 8, !tbaa !25
  %15 = getelementptr inbounds nuw %struct.GFace, ptr %14, i32 0, i32 1
  %16 = load i32, ptr %15, align 8, !tbaa !74
  store i32 %16, ptr %7, align 4, !tbaa !8
  call void @llvm.lifetime.start.p0(i64 8, ptr %8) #12
  %17 = load ptr, ptr %6, align 8, !tbaa !25
  %18 = getelementptr inbounds nuw %struct.fstate, ptr %17, i32 0, i32 1
  %19 = load ptr, ptr %18, align 8, !tbaa !65
  %20 = load i32, ptr %7, align 4, !tbaa !8
  %21 = mul nsw i32 3, %20
  %22 = sext i32 %21 to i64
  %23 = getelementptr inbounds i32, ptr %19, i64 %22
  store ptr %23, ptr %8, align 8, !tbaa !10
  call void @llvm.lifetime.start.p0(i64 8, ptr %9) #12
  call void @llvm.lifetime.start.p0(i64 8, ptr %10) #12
  call void @llvm.lifetime.start.p0(i64 8, ptr %11) #12
  %24 = load ptr, ptr %5, align 8, !tbaa !25
  %25 = getelementptr inbounds nuw %struct.GFace, ptr %24, i32 0, i32 0
  %26 = getelementptr inbounds nuw %struct._GtsFace, ptr %25, i32 0, i32 0
  call void @gts_triangle_vertices(ptr noundef %26, ptr noundef %9, ptr noundef %10, ptr noundef %11)
  %27 = load ptr, ptr %9, align 8, !tbaa !52
  %28 = getelementptr inbounds nuw %struct.GVertex, ptr %27, i32 0, i32 1
  %29 = load i32, ptr %28, align 8, !tbaa !34
  %30 = load ptr, ptr %8, align 8, !tbaa !10
  %31 = getelementptr inbounds nuw i32, ptr %30, i32 1
  store ptr %31, ptr %8, align 8, !tbaa !10
  store i32 %29, ptr %30, align 4, !tbaa !8
  %32 = load ptr, ptr %10, align 8, !tbaa !52
  %33 = getelementptr inbounds nuw %struct.GVertex, ptr %32, i32 0, i32 1
  %34 = load i32, ptr %33, align 8, !tbaa !34
  %35 = load ptr, ptr %8, align 8, !tbaa !10
  %36 = getelementptr inbounds nuw i32, ptr %35, i32 1
  store ptr %36, ptr %8, align 8, !tbaa !10
  store i32 %34, ptr %35, align 4, !tbaa !8
  %37 = load ptr, ptr %11, align 8, !tbaa !52
  %38 = getelementptr inbounds nuw %struct.GVertex, ptr %37, i32 0, i32 1
  %39 = load i32, ptr %38, align 8, !tbaa !34
  %40 = load ptr, ptr %8, align 8, !tbaa !10
  %41 = getelementptr inbounds nuw i32, ptr %40, i32 1
  store ptr %41, ptr %8, align 8, !tbaa !10
  store i32 %39, ptr %40, align 4, !tbaa !8
  call void @llvm.lifetime.end.p0(i64 8, ptr %11) #12
  call void @llvm.lifetime.end.p0(i64 8, ptr %10) #12
  call void @llvm.lifetime.end.p0(i64 8, ptr %9) #12
  call void @llvm.lifetime.end.p0(i64 8, ptr %8) #12
  call void @llvm.lifetime.end.p0(i64 4, ptr %7) #12
  call void @llvm.lifetime.end.p0(i64 8, ptr %6) #12
  call void @llvm.lifetime.end.p0(i64 8, ptr %5) #12
  ret i32 0
}