; Function Attrs: nounwind uwtable
define internal noundef i32 @addTri(ptr noundef %0, ptr noundef readonly captures(none) %1) #0 {
  %3 = alloca ptr, align 8
  %4 = alloca ptr, align 8
  %5 = alloca ptr, align 8
  %6 = getelementptr inbounds nuw i8, ptr %0, i64 56
  %7 = load i32, ptr %6, align 8, !tbaa !63
  %8 = getelementptr inbounds nuw i8, ptr %1, i64 8
  %9 = load ptr, ptr %8, align 8, !tbaa !53
  %10 = mul nsw i32 %7, 3
  %11 = sext i32 %10 to i64
  %12 = getelementptr inbounds i32, ptr %9, i64 %11
  call void @llvm.lifetime.start.p0(i64 8, ptr nonnull %3) #19
  call void @llvm.lifetime.start.p0(i64 8, ptr nonnull %4) #19
  call void @llvm.lifetime.start.p0(i64 8, ptr nonnull %5) #19
  call void @gts_triangle_vertices(ptr noundef %0, ptr noundef nonnull %3, ptr noundef nonnull %4, ptr noundef nonnull %5) #19
  %13 = load ptr, ptr %3, align 8, !tbaa !42
  %14 = getelementptr inbounds nuw i8, ptr %13, i64 56
  %15 = load i32, ptr %14, align 8, !tbaa !23
  %16 = getelementptr inbounds nuw i8, ptr %12, i64 4
  store i32 %15, ptr %12, align 4, !tbaa !10
  %17 = load ptr, ptr %4, align 8, !tbaa !42
  %18 = getelementptr inbounds nuw i8, ptr %17, i64 56
  %19 = load i32, ptr %18, align 8, !tbaa !23
  %20 = getelementptr inbounds nuw i8, ptr %12, i64 8
  store i32 %19, ptr %16, align 4, !tbaa !10
  %21 = load ptr, ptr %5, align 8, !tbaa !42
  %22 = getelementptr inbounds nuw i8, ptr %21, i64 56
  %23 = load i32, ptr %22, align 8, !tbaa !23
  store i32 %23, ptr %20, align 4, !tbaa !10
  call void @llvm.lifetime.end.p0(i64 8, ptr nonnull %5) #19
  call void @llvm.lifetime.end.p0(i64 8, ptr nonnull %4) #19
  call void @llvm.lifetime.end.p0(i64 8, ptr nonnull %3) #19
  ret i32 0
}